; Function Attrs: mustprogress nofree norecurse nosync nounwind willreturn memory(readwrite, inaccessiblemem: none) uwtable
define dso_local void @_ZN4llvm19MachineRegisterInfo27removeRegOperandFromUseListEPNS_14MachineOperandE(ptr noundef nonnull readonly align 8 captures(none) dereferenceable(512) %0, ptr noundef %1) local_unnamed_addr #8 align 2 {
  %3 = getelementptr inbounds nuw i8, ptr %1, i64 4
  %4 = load i32, ptr %3, align 4
  %5 = icmp slt i32 %4, 0
  %6 = getelementptr inbounds nuw i8, ptr %0, i64 56
  %7 = and i32 %4, 2147483647
  %8 = zext nneg i32 %7 to i64
  %9 = load ptr, ptr %6, align 8
  %10 = getelementptr inbounds nuw %"struct.std::pair", ptr %9, i64 %8, i32 1
  %11 = getelementptr inbounds nuw i8, ptr %0, i64 304
  %12 = zext nneg i32 %4 to i64
  %13 = load ptr, ptr %11, align 8
  %14 = getelementptr inbounds nuw ptr, ptr %13, i64 %12
  %.0.i = select i1 %5, ptr %10, ptr %14
  %15 = load ptr, ptr %.0.i, align 8
  %16 = getelementptr inbounds nuw i8, ptr %1, i64 16
  %17 = getelementptr inbounds nuw i8, ptr %1, i64 24
  %18 = load ptr, ptr %17, align 8
  %19 = load ptr, ptr %16, align 8
  %20 = icmp eq ptr %1, %15
  br i1 %20, label %21, label %22

21:                                               ; preds = %2
  store ptr %18, ptr %.0.i, align 8
  br label %24

22:                                               ; preds = %2
  %23 = getelementptr inbounds nuw i8, ptr %19, i64 24
  store ptr %18, ptr %23, align 8
  br label %24

24:                                               ; preds = %22, %21
  %.not = icmp eq ptr %18, null
  %25 = select i1 %.not, ptr %15, ptr %18
  %26 = getelementptr inbounds nuw i8, ptr %25, i64 16
  store ptr %19, ptr %26, align 8
  tail call void @llvm.memset.p0.i64(ptr noundef nonnull align 8 dereferenceable(16) %16, i8 0, i64 16, i1 false)
  ret void
}